target datalayout = "e-m:e-p270:32:32-p271:32:32-p272:64:64-i64:64-i128:128-f80:128-n8:16:32:64-S128"
target triple = "x86_64-pc-linux-gnu"

%struct.GCRef = type { i64 }
%struct.global_State = type { ptr, ptr, %struct.GCState, %struct.GCstr, i8, i8, i8, i8, %struct.StrInternState, i32, %struct.GCRef, %struct.SBuf, %union.TValue, %union.TValue, %struct.Node, %union.TValue, %struct.GCupval, i32, i32, ptr, ptr, ptr, i32, i32, %struct.GCRef, %struct.MRef, %struct.MRef, %struct.PRNGState, [39 x %struct.GCRef] }
%struct.GCState = type { i64, i64, i8, i8, i8, i8, i32, %struct.GCRef, %struct.MRef, %struct.GCRef, %struct.GCRef, %struct.GCRef, %struct.GCRef, i64, i64, i32, i32, %struct.MRef }
%struct.GCstr = type { %struct.GCRef, i8, i8, i8, i8, i32, i32, i32 }
%struct.StrInternState = type { ptr, i32, i32, i32, i8, i8, i8, i8, i64 }
%struct.SBuf = type { ptr, ptr, ptr, %struct.MRef }
%struct.Node = type { %union.TValue, %union.TValue, %struct.MRef }
%union.TValue = type { i64 }
%struct.GCupval = type { %struct.GCRef, i8, i8, i8, i8, %union.anon, %struct.MRef, i32 }
%union.anon = type { %struct.anon.1 }
%struct.anon.1 = type { %struct.GCRef, %struct.GCRef }
%struct.MRef = type { i64 }
%struct.PRNGState = type { [4 x i64] }
%struct.lua_State = type { %struct.GCRef, i8, i8, i8, i8, %struct.MRef, %struct.GCRef, ptr, ptr, %struct.MRef, %struct.MRef, %struct.GCRef, %struct.GCRef, ptr, i32 }
%struct.GCtab = type { %struct.GCRef, i8, i8, i8, i8, %struct.MRef, %struct.GCRef, %struct.GCRef, %struct.MRef, i32, i32, %struct.MRef }

@.str.2 = private unnamed_addr constant [7 x i8] c"__mode\00", align 1
@.str.3 = private unnamed_addr constant [2 x i8] c"k\00", align 1
@.str.25 = private unnamed_addr constant [24 x i8] c"store to dead GC object\00", align 1

; Function Attrs: alwaysinline nounwind uwtable
define internal void @checklivetv(ptr noundef %0, ptr noundef %1, ptr noundef %2) #5 {
  %4 = alloca ptr, align 8
  %5 = alloca ptr, align 8
  %6 = alloca ptr, align 8
  store ptr %0, ptr %4, align 8, !tbaa !57
  store ptr %1, ptr %5, align 8, !tbaa !53
  store ptr %2, ptr %6, align 8, !tbaa !83
  ret void
}

; Function Attrs: alwaysinline nounwind uwtable
define internal void @setgcVraw(ptr noundef %0, ptr noundef %1, i32 noundef %2) #5 {
  %4 = alloca ptr, align 8
  %5 = alloca ptr, align 8
  %6 = alloca i32, align 4
  store ptr %0, ptr %4, align 8, !tbaa !53
  store ptr %1, ptr %5, align 8, !tbaa !110
  store i32 %2, ptr %6, align 4, !tbaa !21
  %7 = load ptr, ptr %5, align 8, !tbaa !110
  %8 = ptrtoint ptr %7 to i64
  %9 = load i32, ptr %6, align 4, !tbaa !21
  %10 = zext i32 %9 to i64
  %11 = shl i64 %10, 47
  %12 = or i64 %8, %11
  %13 = load ptr, ptr %4, align 8, !tbaa !53
  %14 = getelementptr inbounds nuw %struct.GCRef, ptr %13, i32 0, i32 0
  store i64 %12, ptr %14, align 8, !tbaa !55
  ret void
}

; Function Attrs: alwaysinline nounwind uwtable
define internal void @setgcV(ptr noundef %0, ptr noundef %1, ptr noundef %2, i32 noundef %3) #5 {
  %5 = alloca ptr, align 8
  %6 = alloca ptr, align 8
  %7 = alloca ptr, align 8
  %8 = alloca i32, align 4
  store ptr %0, ptr %5, align 8, !tbaa !57
  store ptr %1, ptr %6, align 8, !tbaa !53
  store ptr %2, ptr %7, align 8, !tbaa !110
  store i32 %3, ptr %8, align 4, !tbaa !21
  %9 = load ptr, ptr %6, align 8, !tbaa !53
  %10 = load ptr, ptr %7, align 8, !tbaa !110
  %11 = load i32, ptr %8, align 4, !tbaa !21
  call void @setgcVraw(ptr noundef %9, ptr noundef %10, i32 noundef %11)
  %12 = load ptr, ptr %5, align 8, !tbaa !57
  %13 = load ptr, ptr %6, align 8, !tbaa !53
  call void @checklivetv(ptr noundef %12, ptr noundef %13, ptr noundef @.str.25)
  ret void
}

; Function Attrs: alwaysinline nounwind uwtable
define internal void @setstrV(ptr noundef %0, ptr noundef %1, ptr noundef %2) #5 {
  %4 = alloca ptr, align 8
  %5 = alloca ptr, align 8
  %6 = alloca ptr, align 8
  store ptr %0, ptr %4, align 8, !tbaa !57
  store ptr %1, ptr %5, align 8, !tbaa !53
  store ptr %2, ptr %6, align 8, !tbaa !38
  %7 = load ptr, ptr %4, align 8, !tbaa !57
  %8 = load ptr, ptr %5, align 8, !tbaa !53
  %9 = load ptr, ptr %6, align 8, !tbaa !38
  call void @setgcV(ptr noundef %7, ptr noundef %8, ptr noundef %9, i32 noundef -5)
  ret void
}

; Function Attrs: nounwind uwtable
define hidden void @lj_ctype_initfin(ptr noundef %0) #0 {
  %2 = alloca ptr, align 8
  %3 = alloca ptr, align 8
  store ptr %0, ptr %2, align 8, !tbaa !57
  call void @llvm.lifetime.start.p0(i64 8, ptr %3) #8
  %4 = load ptr, ptr %2, align 8, !tbaa !57
  %5 = call ptr @lj_tab_new(ptr noundef %4, i32 noundef 0, i32 noundef 1)
  store ptr %5, ptr %3, align 8, !tbaa !98
  %6 = load ptr, ptr %3, align 8, !tbaa !98
  %7 = ptrtoint ptr %6 to i64
  %8 = load ptr, ptr %3, align 8, !tbaa !98
  %9 = getelementptr inbounds nuw %struct.GCtab, ptr %8, i32 0, i32 7
  %10 = getelementptr inbounds nuw %struct.GCRef, ptr %9, i32 0, i32 0
  store i64 %7, ptr %10, align 8, !tbaa !99
  %11 = load ptr, ptr %2, align 8, !tbaa !57
  %12 = load ptr, ptr %2, align 8, !tbaa !57
  %13 = load ptr, ptr %3, align 8, !tbaa !98
  %14 = load ptr, ptr %2, align 8, !tbaa !57
  %15 = call ptr @lj_str_new(ptr noundef %14, ptr noundef @.str.2, i64 noundef 6)
  %16 = call ptr @lj_tab_setstr(ptr noundef %12, ptr noundef %13, ptr noundef %15)
  %17 = load ptr, ptr %2, align 8, !tbaa !57
  %18 = call ptr @lj_str_new(ptr noundef %17, ptr noundef @.str.3, i64 noundef 1)
  call void @setstrV(ptr noundef %11, ptr noundef %16, ptr noundef %18)
  %19 = load ptr, ptr %3, align 8, !tbaa !98
  %20 = getelementptr inbounds nuw %struct.GCtab, ptr %19, i32 0, i32 3
  store i8 -9, ptr %20, align 2, !tbaa !101
  %21 = load ptr, ptr %3, align 8, !tbaa !98
  %22 = ptrtoint ptr %21 to i64
  %23 = load ptr, ptr %2, align 8, !tbaa !57
  %24 = getelementptr inbounds nuw %struct.lua_State, ptr %23, i32 0, i32 5
  %25 = getelementptr inbounds nuw %struct.MRef, ptr %24, i32 0, i32 0
  %26 = load i64, ptr %25, align 8, !tbaa !58
  %27 = inttoptr i64 %26 to ptr
  %28 = getelementptr inbounds nuw %struct.global_State, ptr %27, i32 0, i32 28
  %29 = getelementptr inbounds [39 x %struct.GCRef], ptr %28, i64 0, i64 38
  %30 = getelementptr inbounds nuw %struct.GCRef, ptr %29, i32 0, i32 0
  store i64 %22, ptr %30, align 8, !tbaa !56
  call void @llvm.lifetime.end.p0(i64 8, ptr %3) #8
  ret void
}