; Function Attrs: nounwind uwtable
define hidden void @lj_ctype_initfin(ptr noundef %0) local_unnamed_addr #0 {
  %2 = tail call ptr @lj_tab_new(ptr noundef %0, i32 noundef 0, i32 noundef 1) #14
  %3 = ptrtoint ptr %2 to i64
  %4 = getelementptr inbounds nuw i8, ptr %2, i64 32
  store i64 %3, ptr %4, align 8, !tbaa !85
  %5 = tail call ptr @lj_str_new(ptr noundef %0, ptr noundef nonnull @.str.2, i64 noundef 6) #14
  %6 = tail call ptr @lj_tab_setstr(ptr noundef %0, ptr noundef %2, ptr noundef %5) #14
  %7 = tail call ptr @lj_str_new(ptr noundef %0, ptr noundef nonnull @.str.3, i64 noundef 1) #14
  %8 = ptrtoint ptr %7 to i64
  %9 = or i64 %8, -703687441776640
  store i64 %9, ptr %6, align 8, !tbaa !45
  %10 = getelementptr inbounds nuw i8, ptr %2, i64 10
  store i8 -9, ptr %10, align 2, !tbaa !87
  %11 = getelementptr inbounds nuw i8, ptr %0, i64 16
  %12 = load i64, ptr %11, align 8, !tbaa !47
  %13 = inttoptr i64 %12 to ptr
  %14 = getelementptr inbounds nuw i8, ptr %13, i64 728
  store i64 %3, ptr %14, align 8, !tbaa !46
  ret void
}